target datalayout = "e-m:e-p270:32:32-p271:32:32-p272:64:64-i64:64-i128:128-f80:128-n8:16:32:64-S128"
target triple = "x86_64-pc-linux-gnu"

%struct.expert_field = type { i32, i32 }
%struct._packet_info = type { ptr, ptr, i32, i32, %struct.nstime_t, %struct.nstime_t, %struct.nstime_t, i8, ptr, ptr, ptr, ptr, %struct._address, %struct._address, %struct._address, %struct._address, %struct._address, %struct._address, i32, ptr, i8, [3 x i8], %struct.anon, i32, i32, i32, i32, ptr, i8, ptr, ptr, i16, i16, i32, i32, i16, i32, i32, ptr, ptr, ptr, i8, i8, i16, i16, i16, i32, i16, i16, ptr, ptr, ptr, ptr, ptr, i32, i32 }
%struct.nstime_t = type { i64, i32 }
%struct._address = type { i32, i32, ptr, ptr }
%struct.anon = type { i8, [3 x i8] }

@ncp_echo_server = hidden global i8 1, align 1
@ei_ncp_server = internal global %struct.expert_field zeroinitializer, align 4
@.str.5018 = private unnamed_addr constant [82 x i8] c"Server %s, version %d.%d, support pack %d, language %d, server type %s, kernel %s\00", align 1
@.str.5019 = private unnamed_addr constant [12 x i8] c"Unknown: %d\00", align 1
@serv_type_vals = internal constant [3 x { i32, [4 x i8], ptr }] [{ i32, [4 x i8], ptr } { i32 0, [4 x i8] zeroinitializer, ptr @.str.5020 }, { i32, [4 x i8], ptr } { i32 1, [4 x i8] zeroinitializer, ptr @.str.5021 }, { i32, [4 x i8], ptr } zeroinitializer], align 16
@kernel_type_vals = internal constant [3 x { i32, [4 x i8], ptr }] [{ i32, [4 x i8], ptr } { i32 0, [4 x i8] zeroinitializer, ptr @.str.5020 }, { i32, [4 x i8], ptr } { i32 1, [4 x i8] zeroinitializer, ptr @.str.5023 }, { i32, [4 x i8], ptr } zeroinitializer], align 16

; Function Attrs: null_pointer_is_valid sspstrong uwtable
define internal void @ncp1711_reply_expert_func(ptr noundef %0, ptr noundef %1, ptr noundef %2, i1 noundef zeroext %3) #0 {
  %5 = alloca ptr, align 8
  %6 = alloca ptr, align 8
  %7 = alloca ptr, align 8
  %8 = alloca i8, align 1
  %9 = alloca ptr, align 8
  %10 = alloca i8, align 1
  %11 = alloca i8, align 1
  %12 = alloca i8, align 1
  %13 = alloca i8, align 1
  %14 = alloca i8, align 1
  %15 = alloca i16, align 2
  store ptr %0, ptr %5, align 8
  store ptr %1, ptr %6, align 8
  store ptr %2, ptr %7, align 8
  %16 = zext i1 %3 to i8
  store i8 %16, ptr %8, align 1
  %17 = load i8, ptr @ncp_echo_server, align 1, !range !6, !noundef !7
  %18 = trunc i8 %17 to i1
  br i1 %18, label %19, label %87

19:                                               ; preds = %4
  %20 = load i8, ptr %8, align 1, !range !6, !noundef !7
  %21 = trunc i8 %20 to i1
  br i1 %21, label %87, label %22

22:                                               ; preds = %19
  call void @llvm.lifetime.start.p0(i64 8, ptr %9) #13
  call void @llvm.lifetime.start.p0(i64 1, ptr %10) #13
  call void @llvm.lifetime.start.p0(i64 1, ptr %11) #13
  call void @llvm.lifetime.start.p0(i64 1, ptr %12) #13
  call void @llvm.lifetime.start.p0(i64 1, ptr %13) #13
  call void @llvm.lifetime.start.p0(i64 1, ptr %14) #13
  call void @llvm.lifetime.start.p0(i64 2, ptr %15) #13
  %23 = load ptr, ptr %6, align 8
  %24 = getelementptr inbounds nuw %struct._packet_info, ptr %23, i32 0, i32 51
  %25 = load ptr, ptr %24, align 8
  %26 = load ptr, ptr %5, align 8
  %27 = call ptr @ptvcursor_tvbuff(ptr noundef %26)
  %28 = load ptr, ptr %5, align 8
  %29 = call i32 @ptvcursor_current_offset(ptr noundef %28)
  %30 = call ptr @tvb_get_string_enc(ptr noundef %25, ptr noundef %27, i32 noundef %29, i32 noundef 48, i32 noundef 0)
  store ptr %30, ptr %9, align 8
  %31 = load ptr, ptr %5, align 8
  call void @ptvcursor_advance(ptr noundef %31, i32 noundef 48)
  %32 = load ptr, ptr %5, align 8
  %33 = call ptr @ptvcursor_tvbuff(ptr noundef %32)
  %34 = load ptr, ptr %5, align 8
  %35 = call i32 @ptvcursor_current_offset(ptr noundef %34)
  %36 = call zeroext i8 @tvb_get_uint8(ptr noundef %33, i32 noundef %35)
  store i8 %36, ptr %10, align 1
  %37 = load ptr, ptr %5, align 8
  call void @ptvcursor_advance(ptr noundef %37, i32 noundef 1)
  %38 = load ptr, ptr %5, align 8
  %39 = call ptr @ptvcursor_tvbuff(ptr noundef %38)
  %40 = load ptr, ptr %5, align 8
  %41 = call i32 @ptvcursor_current_offset(ptr noundef %40)
  %42 = call zeroext i8 @tvb_get_uint8(ptr noundef %39, i32 noundef %41)
  store i8 %42, ptr %11, align 1
  %43 = load ptr, ptr %5, align 8
  call void @ptvcursor_advance(ptr noundef %43, i32 noundef 25)
  %44 = load ptr, ptr %5, align 8
  %45 = call ptr @ptvcursor_tvbuff(ptr noundef %44)
  %46 = load ptr, ptr %5, align 8
  %47 = call i32 @ptvcursor_current_offset(ptr noundef %46)
  %48 = call zeroext i16 @tvb_get_ntohs(ptr noundef %45, i32 noundef %47)
  store i16 %48, ptr %15, align 2
  %49 = load ptr, ptr %5, align 8
  call void @ptvcursor_advance(ptr noundef %49, i32 noundef 2)
  %50 = load ptr, ptr %5, align 8
  %51 = call ptr @ptvcursor_tvbuff(ptr noundef %50)
  %52 = load ptr, ptr %5, align 8
  %53 = call i32 @ptvcursor_current_offset(ptr noundef %52)
  %54 = call zeroext i8 @tvb_get_uint8(ptr noundef %51, i32 noundef %53)
  store i8 %54, ptr %12, align 1
  %55 = load ptr, ptr %5, align 8
  call void @ptvcursor_advance(ptr noundef %55, i32 noundef 2)
  %56 = load ptr, ptr %5, align 8
  %57 = call ptr @ptvcursor_tvbuff(ptr noundef %56)
  %58 = load ptr, ptr %5, align 8
  %59 = call i32 @ptvcursor_current_offset(ptr noundef %58)
  %60 = call zeroext i8 @tvb_get_uint8(ptr noundef %57, i32 noundef %59)
  store i8 %60, ptr %13, align 1
  %61 = load ptr, ptr %5, align 8
  call void @ptvcursor_advance(ptr noundef %61, i32 noundef 1)
  %62 = load ptr, ptr %5, align 8
  %63 = call ptr @ptvcursor_tvbuff(ptr noundef %62)
  %64 = load ptr, ptr %5, align 8
  %65 = call i32 @ptvcursor_current_offset(ptr noundef %64)
  %66 = call zeroext i8 @tvb_get_uint8(ptr noundef %63, i32 noundef %65)
  store i8 %66, ptr %14, align 1
  %67 = load ptr, ptr %5, align 8
  call void @ptvcursor_advance(ptr noundef %67, i32 noundef 1)
  %68 = load ptr, ptr %6, align 8
  %69 = load ptr, ptr %9, align 8
  %70 = load i8, ptr %10, align 1
  %71 = zext i8 %70 to i32
  %72 = load i8, ptr %11, align 1
  %73 = zext i8 %72 to i32
  %74 = load i16, ptr %15, align 2
  %75 = zext i16 %74 to i32
  %76 = load i8, ptr %12, align 1
  %77 = zext i8 %76 to i32
  %78 = load i8, ptr %13, align 1
  %79 = zext i8 %78 to i32
  %80 = and i32 %79, 1
  %81 = call ptr @val_to_str(i32 noundef %80, ptr noundef @serv_type_vals, ptr noundef @.str.5019)
  %82 = load i8, ptr %14, align 1
  %83 = zext i8 %82 to i32
  %84 = and i32 %83, 1
  %85 = call ptr @val_to_str(i32 noundef %84, ptr noundef @kernel_type_vals, ptr noundef @.str.5019)
  %86 = call ptr (ptr, ptr, ptr, ptr, ...) @expert_add_info_format(ptr noundef %68, ptr noundef null, ptr noundef @ei_ncp_server, ptr noundef @.str.5018, ptr noundef %69, i32 noundef %71, i32 noundef %73, i32 noundef %75, i32 noundef %77, ptr noundef %81, ptr noundef %85)
  call void @llvm.lifetime.end.p0(i64 2, ptr %15) #13
  call void @llvm.lifetime.end.p0(i64 1, ptr %14) #13
  call void @llvm.lifetime.end.p0(i64 1, ptr %13) #13
  call void @llvm.lifetime.end.p0(i64 1, ptr %12) #13
  call void @llvm.lifetime.end.p0(i64 1, ptr %11) #13
  call void @llvm.lifetime.end.p0(i64 1, ptr %10) #13
  call void @llvm.lifetime.end.p0(i64 8, ptr %9) #13
  br label %87

87:                                               ; preds = %22, %19, %4
  ret void
}