; Function Attrs: null_pointer_is_valid sspstrong uwtable
define internal void @ncp1711_reply_expert_func(ptr noundef %0, ptr noundef %1, ptr readnone captures(none) %2, i1 noundef zeroext %3) #0 {
  %5 = load i8, ptr @ncp_echo_server, align 1, !range !6, !noundef !7
  %6 = trunc nuw i8 %5 to i1
  %.not = xor i1 %6, true
  %brmerge = or i1 %3, %.not
  br i1 %brmerge, label %42, label %7

7:                                                ; preds = %4
  %8 = getelementptr inbounds nuw i8, ptr %1, i64 408
  %9 = load ptr, ptr %8, align 8
  %10 = tail call ptr @ptvcursor_tvbuff(ptr noundef %0)
  %11 = tail call i32 @ptvcursor_current_offset(ptr noundef %0)
  %12 = tail call ptr @tvb_get_string_enc(ptr noundef %9, ptr noundef %10, i32 noundef %11, i32 noundef 48, i32 noundef 0)
  tail call void @ptvcursor_advance(ptr noundef %0, i32 noundef 48)
  %13 = tail call ptr @ptvcursor_tvbuff(ptr noundef %0)
  %14 = tail call i32 @ptvcursor_current_offset(ptr noundef %0)
  %15 = tail call zeroext i8 @tvb_get_uint8(ptr noundef %13, i32 noundef %14)
  tail call void @ptvcursor_advance(ptr noundef %0, i32 noundef 1)
  %16 = tail call ptr @ptvcursor_tvbuff(ptr noundef %0)
  %17 = tail call i32 @ptvcursor_current_offset(ptr noundef %0)
  %18 = tail call zeroext i8 @tvb_get_uint8(ptr noundef %16, i32 noundef %17)
  tail call void @ptvcursor_advance(ptr noundef %0, i32 noundef 25)
  %19 = tail call ptr @ptvcursor_tvbuff(ptr noundef %0)
  %20 = tail call i32 @ptvcursor_current_offset(ptr noundef %0)
  %21 = tail call zeroext i16 @tvb_get_ntohs(ptr noundef %19, i32 noundef %20)
  tail call void @ptvcursor_advance(ptr noundef %0, i32 noundef 2)
  %22 = tail call ptr @ptvcursor_tvbuff(ptr noundef %0)
  %23 = tail call i32 @ptvcursor_current_offset(ptr noundef %0)
  %24 = tail call zeroext i8 @tvb_get_uint8(ptr noundef %22, i32 noundef %23)
  tail call void @ptvcursor_advance(ptr noundef %0, i32 noundef 2)
  %25 = tail call ptr @ptvcursor_tvbuff(ptr noundef %0)
  %26 = tail call i32 @ptvcursor_current_offset(ptr noundef %0)
  %27 = tail call zeroext i8 @tvb_get_uint8(ptr noundef %25, i32 noundef %26)
  tail call void @ptvcursor_advance(ptr noundef %0, i32 noundef 1)
  %28 = tail call ptr @ptvcursor_tvbuff(ptr noundef %0)
  %29 = tail call i32 @ptvcursor_current_offset(ptr noundef %0)
  %30 = tail call zeroext i8 @tvb_get_uint8(ptr noundef %28, i32 noundef %29)
  tail call void @ptvcursor_advance(ptr noundef %0, i32 noundef 1)
  %31 = zext i8 %15 to i32
  %32 = zext i8 %18 to i32
  %33 = zext i16 %21 to i32
  %34 = zext i8 %24 to i32
  %35 = and i8 %27, 1
  %36 = zext nneg i8 %35 to i32
  %37 = tail call ptr @val_to_str(i32 noundef %36, ptr noundef nonnull @serv_type_vals, ptr noundef nonnull @.str.5019)
  %38 = and i8 %30, 1
  %39 = zext nneg i8 %38 to i32
  %40 = tail call ptr @val_to_str(i32 noundef %39, ptr noundef nonnull @kernel_type_vals, ptr noundef nonnull @.str.5019)
  %41 = tail call ptr (ptr, ptr, ptr, ptr, ...) @expert_add_info_format(ptr noundef %1, ptr noundef null, ptr noundef nonnull @ei_ncp_server, ptr noundef nonnull @.str.5018, ptr noundef %12, i32 noundef %31, i32 noundef %32, i32 noundef %33, i32 noundef %34, ptr noundef %37, ptr noundef %40)
  br label %42

42:                                               ; preds = %4, %7
  ret void
}